; ModuleID = '62/2809.c'
source_filename = "62/2809.c"
target datalayout = "e-m:e-p270:32:32-p271:32:32-p272:64:64-i64:64-f80:128-n8:16:32:64-S128"
target triple = "x86_64-pc-linux-gnu"

@.str = private unnamed_addr constant [4 x i8] c"%s\0A\00", align 1

; Function Attrs: noinline nounwind uwtable
define dso_local i32 @main() #0 {
  %1 = alloca i32, align 4
  %2 = alloca i32, align 4
  %3 = alloca i32, align 4
  %4 = alloca i32, align 4
  %5 = alloca i32, align 4
  %6 = alloca [1000 x i8], align 16
  store i32 0, i32* %1, align 4
  store i32 0, i32* %4, align 4
  store i32 0, i32* %5, align 4
  %7 = getelementptr inbounds [1000 x i8], [1000 x i8]* %6, i64 0, i64 0
  %8 = call i32 (i8*, ...) bitcast (i32 (...)* @gets to i32 (i8*, ...)*)(i8* %7)
  store i32 0, i32* %2, align 4
  br label %9

9:                                                ; preds = %19, %0
  %10 = load i32, i32* %2, align 4
  %11 = sext i32 %10 to i64
  %12 = getelementptr inbounds [1000 x i8], [1000 x i8]* %6, i64 0, i64 %11
  %13 = load i8, i8* %12, align 1
  %14 = sext i8 %13 to i32
  %15 = icmp ne i32 %14, 0
  br i1 %15, label %16, label %22

16:                                               ; preds = %9
  %17 = load i32, i32* %4, align 4
  %18 = add nsw i32 %17, 1
  store i32 %18, i32* %4, align 4
  br label %19

19:                                               ; preds = %16
  %20 = load i32, i32* %2, align 4
  %21 = add nsw i32 %20, 1
  store i32 %21, i32* %2, align 4
  br label %9

22:                                               ; preds = %9
  store i32 0, i32* %2, align 4
  br label %23

23:                                               ; preds = %77, %22
  %24 = load i32, i32* %2, align 4
  %25 = load i32, i32* %4, align 4
  %26 = icmp sle i32 %24, %25
  br i1 %26, label %27, label %80

27:                                               ; preds = %23
  store i32 0, i32* %5, align 4
  %28 = load i32, i32* %2, align 4
  %29 = sext i32 %28 to i64
  %30 = getelementptr inbounds [1000 x i8], [1000 x i8]* %6, i64 0, i64 %29
  %31 = load i8, i8* %30, align 1
  %32 = sext i8 %31 to i32
  %33 = icmp eq i32 %32, 32
  br i1 %33, label %34, label %73

34:                                               ; preds = %27
  %35 = load i32, i32* %2, align 4
  %36 = add nsw i32 %35, 1
  store i32 %36, i32* %3, align 4
  br label %37

37:                                               ; preds = %47, %34
  %38 = load i32, i32* %3, align 4
  %39 = sext i32 %38 to i64
  %40 = getelementptr inbounds [1000 x i8], [1000 x i8]* %6, i64 0, i64 %39
  %41 = load i8, i8* %40, align 1
  %42 = sext i8 %41 to i32
  %43 = icmp eq i32 %42, 32
  br i1 %43, label %44, label %50

44:                                               ; preds = %37
  %45 = load i32, i32* %5, align 4
  %46 = add nsw i32 %45, 1
  store i32 %46, i32* %5, align 4
  br label %47

47:                                               ; preds = %44
  %48 = load i32, i32* %3, align 4
  %49 = add nsw i32 %48, 1
  store i32 %49, i32* %3, align 4
  br label %37

50:                                               ; preds = %37
  %51 = load i32, i32* %2, align 4
  %52 = add nsw i32 %51, 1
  store i32 %52, i32* %3, align 4
  br label %53

53:                                               ; preds = %69, %50
  %54 = load i32, i32* %3, align 4
  %55 = load i32, i32* %4, align 4
  %56 = load i32, i32* %5, align 4
  %57 = sub nsw i32 %55, %56
  %58 = icmp sle i32 %54, %57
  br i1 %58, label %59, label %72

59:                                               ; preds = %53
  %60 = load i32, i32* %3, align 4
  %61 = load i32, i32* %5, align 4
  %62 = add nsw i32 %60, %61
  %63 = sext i32 %62 to i64
  %64 = getelementptr inbounds [1000 x i8], [1000 x i8]* %6, i64 0, i64 %63
  %65 = load i8, i8* %64, align 1
  %66 = load i32, i32* %3, align 4
  %67 = sext i32 %66 to i64
  %68 = getelementptr inbounds [1000 x i8], [1000 x i8]* %6, i64 0, i64 %67
  store i8 %65, i8* %68, align 1
  br label %69

69:                                               ; preds = %59
  %70 = load i32, i32* %3, align 4
  %71 = add nsw i32 %70, 1
  store i32 %71, i32* %3, align 4
  br label %53

72:                                               ; preds = %53
  br label %73

73:                                               ; preds = %72, %27
  %74 = load i32, i32* %5, align 4
  %75 = load i32, i32* %4, align 4
  %76 = sub nsw i32 %75, %74
  store i32 %76, i32* %4, align 4
  br label %77

77:                                               ; preds = %73
  %78 = load i32, i32* %2, align 4
  %79 = add nsw i32 %78, 1
  store i32 %79, i32* %2, align 4
  br label %23

80:                                               ; preds = %23
  %81 = getelementptr inbounds [1000 x i8], [1000 x i8]* %6, i64 0, i64 0
  %82 = call i32 (i8*, ...) @printf(i8* getelementptr inbounds ([4 x i8], [4 x i8]* @.str, i64 0, i64 0), i8* %81)
  ret i32 0
}

declare dso_local i32 @gets(...) #1

declare dso_local i32 @printf(i8*, ...) #1


!llvm.module.flags = !{!0}
!llvm.ident = !{!1}

!0 = !{i32 1, !"wchar_size", i32 4}
!1 = !{!"clang version 10.0.0-4ubuntu1 "}
